target datalayout = "e-m:e-p270:32:32-p271:32:32-p272:64:64-i64:64-i128:128-f80:128-n8:16:32:64-S128"
target triple = "x86_64-pc-linux-gnu"

%struct.dt_pthread_mutex_t = type { %union.pthread_mutex_t }
%union.pthread_mutex_t = type { %struct.__pthread_mutex_s }
%struct.__pthread_mutex_s = type { i32, i32, i32, i32, i32, i16, i16, %struct.__pthread_internal_list }
%struct.__pthread_internal_list = type { ptr, ptr }
%struct._DtBauhausWidget = type { %struct._GtkDrawingArea, i32, ptr, ptr, i32, [256 x i8], i32, ptr, i32, ptr, ptr, i32, ptr, i32, i32, i32, %struct._GtkBorder, %struct._GtkBorder, i32, %union.dt_bauhaus_data_t }
%struct._GtkDrawingArea = type { %struct._GtkWidget, ptr }
%struct._GtkWidget = type { %struct._GObject, ptr }
%struct._GObject = type { %struct._GTypeInstance, i32, ptr }
%struct._GTypeInstance = type { ptr }
%struct._GtkBorder = type { i16, i16, i16, i16 }
%union.dt_bauhaus_data_t = type { %struct.dt_bauhaus_slider_data_t }
%struct.dt_bauhaus_slider_data_t = type { float, float, float, float, float, float, float, float, float, float, i32, ptr, i32, ptr, i8, ptr, float, float, i8, i32, ptr }
%struct.dt_bauhaus_combobox_data_t = type { i32, i32, i32, i32, ptr, i32, ptr, i32, ptr }
%struct.dt_iop_module_t = type { i32, ptr, ptr, ptr, ptr, ptr, ptr, ptr, ptr, ptr, ptr, ptr, ptr, ptr, ptr, ptr, ptr, ptr, ptr, ptr, ptr, ptr, ptr, ptr, ptr, ptr, ptr, ptr, ptr, ptr, ptr, ptr, ptr, ptr, ptr, ptr, ptr, ptr, ptr, ptr, ptr, ptr, ptr, ptr, ptr, ptr, ptr, ptr, ptr, ptr, ptr, ptr, ptr, ptr, ptr, ptr, ptr, [20 x i8], i32, i32, i32, i32, i32, i32, i32, [8 x i8], [4 x float], [4 x float], [4 x float], [4 x float], [4 x float], [4 x float], ptr, %struct.dt_dev_histogram_stats_t, [4 x i32], i32, i32, ptr, i32, i32, ptr, ptr, i32, ptr, %struct.dt_pthread_mutex_t, ptr, ptr, ptr, ptr, %struct.anon.4, ptr, ptr, ptr, ptr, ptr, ptr, ptr, i32, ptr, ptr, ptr, ptr, ptr, ptr, ptr, i32, ptr, i32, [128 x i8], i32, ptr, ptr, i32, [12 x i8] }
%struct.dt_dev_histogram_stats_t = type { i32, i64, i32, i32 }
%struct.anon.4 = type { %struct.anon.5, %struct.anon.6 }
%struct.anon.5 = type { ptr, ptr }
%struct.anon.6 = type { ptr, i32 }

@dt_bh_get_type.static_g_define_type_id = internal global i64 0, align 8
@.str.48 = private unnamed_addr constant [17 x i8] c"bauhaus-combobox\00", align 1

; Function Attrs: nounwind uwtable
define ptr @dt_bauhaus_combobox_from_widget(ptr noundef %0, ptr noundef %1) #0 {
  %3 = alloca ptr, align 8
  %4 = alloca ptr, align 8
  %5 = alloca ptr, align 8
  store ptr %0, ptr %3, align 8, !tbaa !17
  store ptr %1, ptr %4, align 8, !tbaa !218
  %6 = load ptr, ptr %3, align 8, !tbaa !17
  %7 = getelementptr inbounds nuw %struct._DtBauhausWidget, ptr %6, i32 0, i32 1
  store i32 2, ptr %7, align 8, !tbaa !139
  %8 = load ptr, ptr %4, align 8, !tbaa !218
  %9 = icmp ne ptr %8, null
  br i1 %9, label %10, label %13

10:                                               ; preds = %2
  %11 = load ptr, ptr %4, align 8, !tbaa !218
  %12 = getelementptr inbounds nuw %struct.dt_iop_module_t, ptr %11, i32 0, i32 0
  br label %14

13:                                               ; preds = %2
  br label %14

14:                                               ; preds = %13, %10
  %15 = phi ptr [ %12, %10 ], [ null, %13 ]
  %16 = load ptr, ptr %3, align 8, !tbaa !17
  %17 = getelementptr inbounds nuw %struct._DtBauhausWidget, ptr %16, i32 0, i32 2
  store ptr %15, ptr %17, align 8, !tbaa !194
  call void @llvm.lifetime.start.p0(i64 8, ptr %5) #13
  %18 = load ptr, ptr %3, align 8, !tbaa !17
  %19 = getelementptr inbounds nuw %struct._DtBauhausWidget, ptr %18, i32 0, i32 19
  store ptr %19, ptr %5, align 8, !tbaa !153
  %20 = call ptr @g_ptr_array_new_full(i32 noundef 4, ptr noundef @_free_combobox_entry)
  %21 = load ptr, ptr %5, align 8, !tbaa !153
  %22 = getelementptr inbounds nuw %struct.dt_bauhaus_combobox_data_t, ptr %21, i32 0, i32 6
  store ptr %20, ptr %22, align 8, !tbaa !156
  %23 = load ptr, ptr %5, align 8, !tbaa !153
  %24 = getelementptr inbounds nuw %struct.dt_bauhaus_combobox_data_t, ptr %23, i32 0, i32 1
  store i32 -1, ptr %24, align 4, !tbaa !205
  %25 = load ptr, ptr %5, align 8, !tbaa !153
  %26 = getelementptr inbounds nuw %struct.dt_bauhaus_combobox_data_t, ptr %25, i32 0, i32 0
  store i32 -1, ptr %26, align 8, !tbaa !163
  %27 = load ptr, ptr %5, align 8, !tbaa !153
  %28 = getelementptr inbounds nuw %struct.dt_bauhaus_combobox_data_t, ptr %27, i32 0, i32 2
  store i32 0, ptr %28, align 8, !tbaa !177
  %29 = load ptr, ptr %5, align 8, !tbaa !153
  %30 = getelementptr inbounds nuw %struct.dt_bauhaus_combobox_data_t, ptr %29, i32 0, i32 3
  store i32 1, ptr %30, align 4, !tbaa !269
  %31 = load ptr, ptr %5, align 8, !tbaa !153
  %32 = getelementptr inbounds nuw %struct.dt_bauhaus_combobox_data_t, ptr %31, i32 0, i32 5
  store i32 3, ptr %32, align 8, !tbaa !172
  %33 = load ptr, ptr %5, align 8, !tbaa !153
  %34 = getelementptr inbounds nuw %struct.dt_bauhaus_combobox_data_t, ptr %33, i32 0, i32 7
  store i32 0, ptr %34, align 8, !tbaa !270
  %35 = load ptr, ptr %5, align 8, !tbaa !153
  %36 = getelementptr inbounds nuw %struct.dt_bauhaus_combobox_data_t, ptr %35, i32 0, i32 8
  store ptr null, ptr %36, align 8, !tbaa !271
  %37 = load ptr, ptr %5, align 8, !tbaa !153
  %38 = getelementptr inbounds nuw %struct.dt_bauhaus_combobox_data_t, ptr %37, i32 0, i32 4
  store ptr null, ptr %38, align 8, !tbaa !199
  %39 = load ptr, ptr %3, align 8, !tbaa !17
  %40 = call i64 @gtk_widget_get_type() #14
  %41 = call ptr @g_type_check_instance_cast(ptr noundef %39, i64 noundef %40)
  call void @gtk_widget_set_name(ptr noundef %41, ptr noundef @.str.48)
  %42 = load ptr, ptr %3, align 8, !tbaa !17
  %43 = call i64 @gtk_widget_get_type() #14
  %44 = call ptr @g_type_check_instance_cast(ptr noundef %42, i64 noundef %43)
  call void @llvm.lifetime.end.p0(i64 8, ptr %5) #13
  ret ptr %44
}

; Function Attrs: inlinehint nounwind uwtable
define internal ptr @DT_BAUHAUS_WIDGET(ptr noundef %0) #4 {
  %2 = alloca ptr, align 8
  store ptr %0, ptr %2, align 8, !tbaa !32
  %3 = load ptr, ptr %2, align 8, !tbaa !32
  %4 = call i64 @dt_bh_get_type()
  %5 = call ptr @g_type_check_instance_cast(ptr noundef %3, i64 noundef %4)
  ret ptr %5
}

; Function Attrs: nounwind uwtable
define i64 @dt_bh_get_type() #0 {
  %1 = alloca i32, align 4
  %2 = alloca i64, align 8
  %3 = alloca ptr, align 8
  %4 = alloca i64, align 8
  %5 = alloca i64, align 8
  call void @llvm.lifetime.start.p0(i64 8, ptr %2) #13
  call void @llvm.lifetime.start.p0(i64 8, ptr %3) #13
  store ptr @dt_bh_get_type.static_g_define_type_id, ptr %3, align 8, !tbaa !6
  %6 = load ptr, ptr %3, align 8, !tbaa !6
  %7 = load atomic i64, ptr %6 seq_cst, align 8
  store i64 %7, ptr %2, align 8
  %8 = load i64, ptr %2, align 8, !tbaa !11
  store i64 %8, ptr %4, align 8, !tbaa !11
  call void @llvm.lifetime.end.p0(i64 8, ptr %3) #13
  call void @llvm.lifetime.end.p0(i64 8, ptr %2) #13
  %9 = load i64, ptr %4, align 8, !tbaa !11
  %10 = icmp ne i64 %9, 0
  br i1 %10, label %14, label %11

11:                                               ; preds = %0
  %12 = call i32 @g_once_init_enter(ptr noundef @dt_bh_get_type.static_g_define_type_id)
  %13 = icmp ne i32 %12, 0
  br label %14

14:                                               ; preds = %11, %0
  %15 = phi i1 [ false, %0 ], [ %13, %11 ]
  %16 = zext i1 %15 to i32
  store i32 %16, ptr %1, align 4, !tbaa !13
  %17 = load i32, ptr %1, align 4, !tbaa !13
  %18 = icmp ne i32 %17, 0
  br i1 %18, label %19, label %22

19:                                               ; preds = %14
  call void @llvm.lifetime.start.p0(i64 8, ptr %5) #13
  %20 = call i64 @dt_bh_get_type_once()
  store i64 %20, ptr %5, align 8, !tbaa !11
  %21 = load i64, ptr %5, align 8, !tbaa !11
  call void @g_once_init_leave(ptr noundef @dt_bh_get_type.static_g_define_type_id, i64 noundef %21)
  call void @llvm.lifetime.end.p0(i64 8, ptr %5) #13
  br label %22

22:                                               ; preds = %19, %14
  %23 = load i64, ptr @dt_bh_get_type.static_g_define_type_id, align 8, !tbaa !11
  ret i64 %23
}

; Function Attrs: nounwind uwtable
define ptr @dt_bauhaus_combobox_new(ptr noundef %0) #0 {
  %2 = alloca ptr, align 8
  %3 = alloca ptr, align 8
  store ptr %0, ptr %2, align 8, !tbaa !218
  call void @llvm.lifetime.start.p0(i64 8, ptr %3) #13
  %4 = call i64 @dt_bh_get_type()
  %5 = call ptr (i64, ptr, ...) @g_object_new(i64 noundef %4, ptr noundef null)
  %6 = call ptr @DT_BAUHAUS_WIDGET(ptr noundef %5)
  store ptr %6, ptr %3, align 8, !tbaa !17
  %7 = load ptr, ptr %3, align 8, !tbaa !17
  %8 = load ptr, ptr %2, align 8, !tbaa !218
  %9 = call ptr @dt_bauhaus_combobox_from_widget(ptr noundef %7, ptr noundef %8)
  call void @llvm.lifetime.end.p0(i64 8, ptr %3) #13
  ret ptr %9
}