; Function Attrs: nounwind uwtable
define ptr @dt_bauhaus_combobox_new(ptr noundef %0) local_unnamed_addr #0 {
  %2 = load atomic i64, ptr @dt_bh_get_type.static_g_define_type_id seq_cst, align 8
  %.not.i = icmp eq i64 %2, 0
  br i1 %.not.i, label %3, label %dt_bh_get_type.exit

3:                                                ; preds = %1
  %4 = tail call i32 @g_once_init_enter(ptr noundef nonnull @dt_bh_get_type.static_g_define_type_id) #19
  %.not4.i = icmp eq i32 %4, 0
  br i1 %.not4.i, label %dt_bh_get_type.exit, label %5

5:                                                ; preds = %3
  %6 = tail call fastcc i64 @dt_bh_get_type_once()
  tail call void @g_once_init_leave(ptr noundef nonnull @dt_bh_get_type.static_g_define_type_id, i64 noundef %6) #19
  br label %dt_bh_get_type.exit

dt_bh_get_type.exit:                              ; preds = %1, %3, %5
  %7 = load i64, ptr @dt_bh_get_type.static_g_define_type_id, align 8, !tbaa !6
  %8 = tail call ptr (i64, ptr, ...) @g_object_new(i64 noundef %7, ptr noundef null) #19
  %9 = load atomic i64, ptr @dt_bh_get_type.static_g_define_type_id seq_cst, align 8
  %.not.i.i = icmp eq i64 %9, 0
  br i1 %.not.i.i, label %10, label %DT_BAUHAUS_WIDGET.exit

10:                                               ; preds = %dt_bh_get_type.exit
  %11 = tail call i32 @g_once_init_enter(ptr noundef nonnull @dt_bh_get_type.static_g_define_type_id) #19
  %.not4.i.i = icmp eq i32 %11, 0
  br i1 %.not4.i.i, label %DT_BAUHAUS_WIDGET.exit, label %12

12:                                               ; preds = %10
  %13 = tail call fastcc i64 @dt_bh_get_type_once()
  tail call void @g_once_init_leave(ptr noundef nonnull @dt_bh_get_type.static_g_define_type_id, i64 noundef %13) #19
  br label %DT_BAUHAUS_WIDGET.exit

DT_BAUHAUS_WIDGET.exit:                           ; preds = %dt_bh_get_type.exit, %10, %12
  %14 = load i64, ptr @dt_bh_get_type.static_g_define_type_id, align 8, !tbaa !6
  %15 = tail call ptr @g_type_check_instance_cast(ptr noundef %8, i64 noundef %14) #19
  %16 = getelementptr inbounds nuw i8, ptr %15, i64 40
  store i32 2, ptr %16, align 8, !tbaa !105
  %17 = getelementptr inbounds nuw i8, ptr %15, i64 48
  store ptr %0, ptr %17, align 8, !tbaa !161
  %18 = getelementptr inbounds nuw i8, ptr %15, i64 408
  %19 = tail call ptr @g_ptr_array_new_full(i32 noundef 4, ptr noundef nonnull @_free_combobox_entry) #19
  %20 = getelementptr inbounds nuw i8, ptr %15, i64 440
  store ptr %19, ptr %20, align 8, !tbaa !128
  %21 = getelementptr inbounds nuw i8, ptr %15, i64 412
  store i32 -1, ptr %21, align 4, !tbaa !169
  store i32 -1, ptr %18, align 8, !tbaa !137
  %22 = getelementptr inbounds nuw i8, ptr %15, i64 416
  store i32 0, ptr %22, align 8, !tbaa !150
  %23 = getelementptr inbounds nuw i8, ptr %15, i64 420
  store i32 1, ptr %23, align 4, !tbaa !223
  %24 = getelementptr inbounds nuw i8, ptr %15, i64 432
  store i32 3, ptr %24, align 8, !tbaa !147
  %25 = getelementptr inbounds nuw i8, ptr %15, i64 448
  store i32 0, ptr %25, align 8, !tbaa !224
  %26 = getelementptr inbounds nuw i8, ptr %15, i64 456
  store ptr null, ptr %26, align 8, !tbaa !225
  %27 = getelementptr inbounds nuw i8, ptr %15, i64 424
  store ptr null, ptr %27, align 8, !tbaa !164
  %28 = tail call i64 @gtk_widget_get_type() #20
  %29 = tail call ptr @g_type_check_instance_cast(ptr noundef %15, i64 noundef %28) #19
  tail call void @gtk_widget_set_name(ptr noundef %29, ptr noundef nonnull @.str.48) #19
  %30 = tail call ptr @g_type_check_instance_cast(ptr noundef %15, i64 noundef %28) #19
  ret ptr %30
}